; Function Attrs: nounwind uwtable
define ptr @l_Std_DHashMap_Internal_AssocList_get_x3f___at_Lean_Elab_Tactic_GuardMsgs_elabGuardMsgs___spec__10(ptr readnone captures(none) %0, ptr readnone captures(none) %1, ptr noundef %2, ptr noundef %3) local_unnamed_addr #0 {
  %5 = getelementptr i8, ptr %2, i64 8
  br label %lean_string_dec_eq.exit.thread

lean_string_dec_eq.exit.thread:                   ; preds = %lean_string_dec_eq.exit.thread.backedge, %4
  %.015 = phi ptr [ %3, %4 ], [ %21, %lean_string_dec_eq.exit.thread.backedge ]
  %6 = ptrtoint ptr %.015 to i64
  %7 = and i64 %6, 1
  %.not.i = icmp eq i64 %7, 0
  br i1 %.not.i, label %11, label %8

8:                                                ; preds = %lean_string_dec_eq.exit.thread
  %9 = lshr i64 %6, 1
  %10 = trunc i64 %9 to i32
  br label %lean_obj_tag.exit

11:                                               ; preds = %lean_string_dec_eq.exit.thread
  %12 = getelementptr i8, ptr %.015, i64 4
  %.val.i = load i32, ptr %12, align 4
  %13 = lshr i32 %.val.i, 24
  br label %lean_obj_tag.exit

lean_obj_tag.exit:                                ; preds = %8, %11
  %.0.i = phi i32 [ %10, %8 ], [ %13, %11 ]
  %14 = icmp eq i32 %.0.i, 0
  br i1 %14, label %.loopexit, label %15

15:                                               ; preds = %lean_obj_tag.exit
  %16 = getelementptr inbounds nuw i8, ptr %.015, i64 8
  %17 = load ptr, ptr %16, align 8, !tbaa !4
  %18 = getelementptr inbounds nuw i8, ptr %.015, i64 16
  %19 = load ptr, ptr %18, align 8, !tbaa !4
  %20 = getelementptr inbounds nuw i8, ptr %.015, i64 24
  %21 = load ptr, ptr %20, align 8, !tbaa !4
  %22 = icmp eq ptr %17, %2
  br i1 %22, label %lean_string_dec_eq.exit.thread19, label %23

23:                                               ; preds = %15
  %24 = getelementptr i8, ptr %17, i64 8
  %.val.i.i = load i64, ptr %24, align 8, !tbaa !11
  %.val7.i.i = load i64, ptr %5, align 8, !tbaa !11
  %25 = icmp eq i64 %.val.i.i, %.val7.i.i
  br i1 %25, label %lean_string_dec_eq.exit, label %lean_string_dec_eq.exit.thread.backedge

lean_string_dec_eq.exit.thread.backedge:          ; preds = %23, %lean_string_dec_eq.exit
  br label %lean_string_dec_eq.exit.thread

lean_string_dec_eq.exit:                          ; preds = %23
  %26 = tail call zeroext i1 @lean_string_eq_cold(ptr noundef nonnull %17, ptr noundef nonnull %2) #7
  br i1 %26, label %lean_string_dec_eq.exit.thread19, label %lean_string_dec_eq.exit.thread.backedge

lean_string_dec_eq.exit.thread19:                 ; preds = %15, %lean_string_dec_eq.exit
  %27 = ptrtoint ptr %19 to i64
  %28 = and i64 %27, 1
  %.not = icmp eq i64 %28, 0
  br i1 %.not, label %29, label %lean_inc.exit

29:                                               ; preds = %lean_string_dec_eq.exit.thread19
  %.val.i17 = load i32, ptr %19, align 4, !tbaa !8
  %30 = icmp sgt i32 %.val.i17, 0
  br i1 %30, label %31, label %33, !prof !13

31:                                               ; preds = %29
  %32 = add nuw i32 %.val.i17, 1
  store i32 %32, ptr %19, align 4, !tbaa !8
  br label %lean_inc.exit

33:                                               ; preds = %29
  %.not.i18 = icmp eq i32 %.val.i17, 0
  br i1 %.not.i18, label %lean_inc.exit, label %34

34:                                               ; preds = %33
  tail call void @lean_inc_ref_cold(ptr noundef nonnull %19) #7
  br label %lean_inc.exit

lean_inc.exit:                                    ; preds = %34, %33, %31, %lean_string_dec_eq.exit.thread19
  tail call void @lean_inc_heartbeat() #7
  %35 = tail call noalias ptr @mi_malloc_small(i64 noundef 16) #7
  %36 = icmp eq ptr %35, null
  br i1 %36, label %37, label %.thread

37:                                               ; preds = %lean_inc.exit
  tail call void @lean_internal_panic_out_of_memory() #8
  unreachable

.thread:                                          ; preds = %lean_inc.exit
  %38 = getelementptr inbounds nuw i8, ptr %35, i64 4
  store i32 1, ptr %35, align 4, !tbaa !8
  store i32 16842768, ptr %38, align 4
  %39 = getelementptr inbounds nuw i8, ptr %35, i64 8
  store ptr %19, ptr %39, align 8, !tbaa !4
  br label %.loopexit

.loopexit:                                        ; preds = %lean_obj_tag.exit, %.thread
  %.1 = phi ptr [ %35, %.thread ], [ inttoptr (i64 1 to ptr), %lean_obj_tag.exit ]
  ret ptr %.1
}